target datalayout = "e-m:e-p270:32:32-p271:32:32-p272:64:64-i64:64-i128:128-f80:128-n8:16:32:64-S128"
target triple = "x86_64-pc-linux-gnu"

%struct._dcerpc_info = type { ptr, i32, i64, i8, i8, i8, i32, i32, i32, i32, i32, i32, i32, i32, ptr, ptr, ptr, ptr, %struct.anon }
%struct.anon = type { i8, ptr, ptr, ptr, i8 }
%struct._packet_info = type { ptr, ptr, i32, i32, %struct.nstime_t, %struct.nstime_t, %struct.nstime_t, i8, ptr, ptr, ptr, ptr, %struct._address, %struct._address, %struct._address, %struct._address, %struct._address, %struct._address, i32, ptr, i8, [3 x i8], %struct.anon.0, i32, i32, i32, i32, ptr, i8, ptr, ptr, i16, i16, i32, i32, i16, i32, i32, ptr, ptr, ptr, i8, i8, i16, i16, i16, i32, i16, i16, ptr, ptr, ptr, ptr, ptr, i32, i32 }
%struct.nstime_t = type { i64, i32 }
%struct._address = type { i32, i32, ptr, ptr }
%struct.anon.0 = type { i8, [3 x i8] }

@hf_fileexp_afsTaggedPath_tp_chars = internal global i32 0, align 4
@hf_fileexp_afsTaggedPath_tp_tag = internal global i32 0, align 4
@hf_fileexp_afsTaggedPath_tp_length = internal global i32 0, align 4
@ett_fileexp_afsTaggedPath = internal global i32 0, align 4
@.str.456 = private unnamed_addr constant [14 x i8] c"afsTaggedPath\00", align 1
@.str.457 = private unnamed_addr constant [14 x i8] c" :tp_chars %s\00", align 1

; Function Attrs: null_pointer_is_valid sspstrong uwtable
define internal i32 @dissect_afsTaggedPath(ptr noundef %0, i32 noundef %1, ptr noundef %2, ptr noundef %3, ptr noundef %4, ptr noundef %5) #0 {
  %7 = alloca i32, align 4
  %8 = alloca ptr, align 8
  %9 = alloca i32, align 4
  %10 = alloca ptr, align 8
  %11 = alloca ptr, align 8
  %12 = alloca ptr, align 8
  %13 = alloca ptr, align 8
  %14 = alloca ptr, align 8
  %15 = alloca ptr, align 8
  %16 = alloca i32, align 4
  %17 = alloca i32, align 4
  %18 = alloca i16, align 2
  %19 = alloca ptr, align 8
  %20 = alloca i32, align 4
  store ptr %0, ptr %8, align 8
  store i32 %1, ptr %9, align 4
  store ptr %2, ptr %10, align 8
  store ptr %3, ptr %11, align 8
  store ptr %4, ptr %12, align 8
  store ptr %5, ptr %13, align 8
  call void @llvm.lifetime.start.p0(i64 8, ptr %14) #4
  store ptr null, ptr %14, align 8
  call void @llvm.lifetime.start.p0(i64 8, ptr %15) #4
  store ptr null, ptr %15, align 8
  call void @llvm.lifetime.start.p0(i64 4, ptr %16) #4
  %21 = load i32, ptr %9, align 4
  store i32 %21, ptr %16, align 4
  call void @llvm.lifetime.start.p0(i64 4, ptr %17) #4
  call void @llvm.lifetime.start.p0(i64 2, ptr %18) #4
  call void @llvm.lifetime.start.p0(i64 8, ptr %19) #4
  %22 = load ptr, ptr %12, align 8
  %23 = getelementptr inbounds nuw %struct._dcerpc_info, ptr %22, i32 0, i32 4
  %24 = load i8, ptr %23, align 1, !range !6, !noundef !7
  %25 = trunc i8 %24 to i1
  br i1 %25, label %26, label %28

26:                                               ; preds = %6
  %27 = load i32, ptr %9, align 4
  store i32 %27, ptr %7, align 4
  store i32 1, ptr %20, align 4
  br label %78

28:                                               ; preds = %6
  %29 = load ptr, ptr %11, align 8
  %30 = icmp ne ptr %29, null
  br i1 %30, label %31, label %37

31:                                               ; preds = %28
  %32 = load ptr, ptr %11, align 8
  %33 = load ptr, ptr %8, align 8
  %34 = load i32, ptr %9, align 4
  %35 = load i32, ptr @ett_fileexp_afsTaggedPath, align 4
  %36 = call ptr @proto_tree_add_subtree(ptr noundef %32, ptr noundef %33, i32 noundef %34, i32 noundef -1, i32 noundef %35, ptr noundef %14, ptr noundef @.str.456)
  store ptr %36, ptr %15, align 8
  br label %37

37:                                               ; preds = %31, %28
  %38 = load ptr, ptr %8, align 8
  %39 = load i32, ptr %9, align 4
  %40 = load ptr, ptr %10, align 8
  %41 = load ptr, ptr %15, align 8
  %42 = load ptr, ptr %12, align 8
  %43 = load ptr, ptr %13, align 8
  %44 = load i32, ptr @hf_fileexp_afsTaggedPath_tp_tag, align 4
  %45 = call i32 @dissect_ndr_uint32(ptr noundef %38, i32 noundef %39, ptr noundef %40, ptr noundef %41, ptr noundef %42, ptr noundef %43, i32 noundef %44, ptr noundef %17)
  store i32 %45, ptr %9, align 4
  %46 = load ptr, ptr %8, align 8
  %47 = load i32, ptr %9, align 4
  %48 = load ptr, ptr %10, align 8
  %49 = load ptr, ptr %15, align 8
  %50 = load ptr, ptr %12, align 8
  %51 = load ptr, ptr %13, align 8
  %52 = load i32, ptr @hf_fileexp_afsTaggedPath_tp_length, align 4
  %53 = call i32 @dissect_ndr_uint16(ptr noundef %46, i32 noundef %47, ptr noundef %48, ptr noundef %49, ptr noundef %50, ptr noundef %51, i32 noundef %52, ptr noundef %18)
  store i32 %53, ptr %9, align 4
  %54 = load ptr, ptr %15, align 8
  %55 = load i32, ptr @hf_fileexp_afsTaggedPath_tp_chars, align 4
  %56 = load ptr, ptr %8, align 8
  %57 = load i32, ptr %9, align 4
  %58 = load i16, ptr %18, align 2
  %59 = zext i16 %58 to i32
  %60 = call ptr @proto_tree_add_item(ptr noundef %54, i32 noundef %55, ptr noundef %56, i32 noundef %57, i32 noundef %59, i32 noundef 0)
  %61 = load ptr, ptr %10, align 8
  %62 = getelementptr inbounds nuw %struct._packet_info, ptr %61, i32 0, i32 51
  %63 = load ptr, ptr %62, align 8
  %64 = load ptr, ptr %8, align 8
  %65 = load i32, ptr %9, align 4
  %66 = call ptr @tvb_get_string_enc(ptr noundef %63, ptr noundef %64, i32 noundef %65, i32 noundef 1025, i32 noundef 0)
  store ptr %66, ptr %19, align 8
  %67 = load i32, ptr %9, align 4
  %68 = add i32 %67, 1025
  store i32 %68, ptr %9, align 4
  %69 = load ptr, ptr %10, align 8
  %70 = getelementptr inbounds nuw %struct._packet_info, ptr %69, i32 0, i32 1
  %71 = load ptr, ptr %70, align 8
  %72 = load ptr, ptr %19, align 8
  call void (ptr, i32, ptr, ...) @col_append_fstr(ptr noundef %71, i32 noundef 25, ptr noundef @.str.457, ptr noundef %72)
  %73 = load ptr, ptr %14, align 8
  %74 = load i32, ptr %9, align 4
  %75 = load i32, ptr %16, align 4
  %76 = sub i32 %74, %75
  call void @proto_item_set_len(ptr noundef %73, i32 noundef %76)
  %77 = load i32, ptr %9, align 4
  store i32 %77, ptr %7, align 4
  store i32 1, ptr %20, align 4
  br label %78

78:                                               ; preds = %37, %26
  call void @llvm.lifetime.end.p0(i64 8, ptr %19) #4
  call void @llvm.lifetime.end.p0(i64 2, ptr %18) #4
  call void @llvm.lifetime.end.p0(i64 4, ptr %17) #4
  call void @llvm.lifetime.end.p0(i64 4, ptr %16) #4
  call void @llvm.lifetime.end.p0(i64 8, ptr %15) #4
  call void @llvm.lifetime.end.p0(i64 8, ptr %14) #4
  %79 = load i32, ptr %7, align 4
  ret i32 %79
}