; Function Attrs: null_pointer_is_valid sspstrong uwtable
define internal noundef i32 @dissect_afsTaggedPath(ptr noundef %0, i32 noundef %1, ptr noundef %2, ptr noundef %3, ptr noundef %4, ptr noundef %5) #0 {
  %7 = alloca ptr, align 8
  %8 = alloca i32, align 4
  %9 = alloca i16, align 2
  call void @llvm.lifetime.start.p0(i64 8, ptr nonnull %7) #4
  store ptr null, ptr %7, align 8
  call void @llvm.lifetime.start.p0(i64 4, ptr nonnull %8) #4
  call void @llvm.lifetime.start.p0(i64 2, ptr nonnull %9) #4
  %10 = getelementptr inbounds nuw i8, ptr %4, i64 25
  %11 = load i8, ptr %10, align 1, !range !6, !noundef !7
  %12 = trunc nuw i8 %11 to i1
  br i1 %12, label %34, label %13

13:                                               ; preds = %6
  %.not = icmp eq ptr %3, null
  br i1 %.not, label %17, label %14

14:                                               ; preds = %13
  %15 = load i32, ptr @ett_fileexp_afsTaggedPath, align 4
  %16 = call ptr @proto_tree_add_subtree(ptr noundef nonnull %3, ptr noundef %0, i32 noundef %1, i32 noundef -1, i32 noundef %15, ptr noundef nonnull %7, ptr noundef nonnull @.str.456)
  br label %17

17:                                               ; preds = %14, %13
  %.031 = phi ptr [ %16, %14 ], [ null, %13 ]
  %18 = load i32, ptr @hf_fileexp_afsTaggedPath_tp_tag, align 4
  %19 = call i32 @dissect_ndr_uint32(ptr noundef %0, i32 noundef %1, ptr noundef %2, ptr noundef %.031, ptr noundef %4, ptr noundef %5, i32 noundef %18, ptr noundef nonnull %8)
  %20 = load i32, ptr @hf_fileexp_afsTaggedPath_tp_length, align 4
  %21 = call i32 @dissect_ndr_uint16(ptr noundef %0, i32 noundef %19, ptr noundef %2, ptr noundef %.031, ptr noundef %4, ptr noundef %5, i32 noundef %20, ptr noundef nonnull %9)
  %22 = load i32, ptr @hf_fileexp_afsTaggedPath_tp_chars, align 4
  %23 = load i16, ptr %9, align 2
  %24 = zext i16 %23 to i32
  %25 = call ptr @proto_tree_add_item(ptr noundef %.031, i32 noundef %22, ptr noundef %0, i32 noundef %21, i32 noundef %24, i32 noundef 0)
  %26 = getelementptr inbounds nuw i8, ptr %2, i64 408
  %27 = load ptr, ptr %26, align 8
  %28 = call ptr @tvb_get_string_enc(ptr noundef %27, ptr noundef %0, i32 noundef %21, i32 noundef 1025, i32 noundef 0)
  %29 = add i32 %21, 1025
  %30 = getelementptr inbounds nuw i8, ptr %2, i64 8
  %31 = load ptr, ptr %30, align 8
  call void (ptr, i32, ptr, ...) @col_append_fstr(ptr noundef %31, i32 noundef 25, ptr noundef nonnull @.str.457, ptr noundef %28)
  %32 = load ptr, ptr %7, align 8
  %33 = sub i32 %29, %1
  call void @proto_item_set_len(ptr noundef %32, i32 noundef %33)
  br label %34

34:                                               ; preds = %6, %17
  %.0 = phi i32 [ %29, %17 ], [ %1, %6 ]
  call void @llvm.lifetime.end.p0(i64 2, ptr nonnull %9) #4
  call void @llvm.lifetime.end.p0(i64 4, ptr nonnull %8) #4
  call void @llvm.lifetime.end.p0(i64 8, ptr nonnull %7) #4
  ret i32 %.0
}